target datalayout = "e-m:e-p270:32:32-p271:32:32-p272:64:64-i64:64-i128:128-f80:128-n8:16:32:64-S128"
target triple = "x86_64-pc-linux-gnu"

%struct.archive_write = type { %struct.archive, i32, i64, i64, ptr, i64, ptr, ptr, ptr, ptr, ptr, i32, i32, ptr, ptr, ptr, ptr, ptr, ptr, ptr, ptr, ptr, ptr, ptr, ptr, ptr, ptr }
%struct.archive = type { i32, i32, ptr, i32, ptr, i32, i32, ptr, %struct.archive_string, ptr, i32, i32, ptr, ptr, i64, i64, i64, i8, i64 }
%struct.archive_string = type { ptr, i64, i64 }
%struct.cpio = type { i64, i64, ptr, i64, i64, ptr, ptr, i32 }

@.str.6 = private unnamed_addr constant [18 x i8] c"Filetype required\00", align 1
@.str.7 = private unnamed_addr constant [35 x i8] c"Can't allocate memory for Pathname\00", align 1
@.str.8 = private unnamed_addr constant [18 x i8] c"Pathname required\00", align 1
@.str.9 = private unnamed_addr constant [14 x i8] c"Size required\00", align 1

; Function Attrs: nounwind uwtable
define internal ptr @get_sconv(ptr noundef %0) #0 {
  %2 = alloca ptr, align 8
  %3 = alloca ptr, align 8
  %4 = alloca ptr, align 8
  store ptr %0, ptr %2, align 8, !tbaa !9
  call void @llvm.lifetime.start.p0(i64 8, ptr %3) #9
  call void @llvm.lifetime.start.p0(i64 8, ptr %4) #9
  %5 = load ptr, ptr %2, align 8, !tbaa !9
  %6 = getelementptr inbounds nuw %struct.archive_write, ptr %5, i32 0, i32 15
  %7 = load ptr, ptr %6, align 8, !tbaa !24
  store ptr %7, ptr %3, align 8, !tbaa !22
  %8 = load ptr, ptr %3, align 8, !tbaa !22
  %9 = getelementptr inbounds nuw %struct.cpio, ptr %8, i32 0, i32 5
  %10 = load ptr, ptr %9, align 8, !tbaa !35
  store ptr %10, ptr %4, align 8, !tbaa !43
  %11 = load ptr, ptr %4, align 8, !tbaa !43
  %12 = icmp eq ptr %11, null
  br i1 %12, label %13, label %30

13:                                               ; preds = %1
  %14 = load ptr, ptr %3, align 8, !tbaa !22
  %15 = getelementptr inbounds nuw %struct.cpio, ptr %14, i32 0, i32 7
  %16 = load i32, ptr %15, align 8, !tbaa !44
  %17 = icmp ne i32 %16, 0
  br i1 %17, label %26, label %18

18:                                               ; preds = %13
  %19 = load ptr, ptr %2, align 8, !tbaa !9
  %20 = getelementptr inbounds nuw %struct.archive_write, ptr %19, i32 0, i32 0
  %21 = call ptr @archive_string_default_conversion_for_write(ptr noundef %20)
  %22 = load ptr, ptr %3, align 8, !tbaa !22
  %23 = getelementptr inbounds nuw %struct.cpio, ptr %22, i32 0, i32 6
  store ptr %21, ptr %23, align 8, !tbaa !45
  %24 = load ptr, ptr %3, align 8, !tbaa !22
  %25 = getelementptr inbounds nuw %struct.cpio, ptr %24, i32 0, i32 7
  store i32 1, ptr %25, align 8, !tbaa !44
  br label %26

26:                                               ; preds = %18, %13
  %27 = load ptr, ptr %3, align 8, !tbaa !22
  %28 = getelementptr inbounds nuw %struct.cpio, ptr %27, i32 0, i32 6
  %29 = load ptr, ptr %28, align 8, !tbaa !45
  store ptr %29, ptr %4, align 8, !tbaa !43
  br label %30

30:                                               ; preds = %26, %1
  %31 = load ptr, ptr %4, align 8, !tbaa !43
  call void @llvm.lifetime.end.p0(i64 8, ptr %4) #9
  call void @llvm.lifetime.end.p0(i64 8, ptr %3) #9
  ret ptr %31
}

; Function Attrs: nounwind uwtable
define internal i32 @archive_write_odc_header(ptr noundef %0, ptr noundef %1) #0 {
  %3 = alloca i32, align 4
  %4 = alloca ptr, align 8
  %5 = alloca ptr, align 8
  %6 = alloca ptr, align 8
  %7 = alloca i64, align 8
  %8 = alloca i32, align 4
  store ptr %0, ptr %4, align 8, !tbaa !9
  store ptr %1, ptr %5, align 8, !tbaa !37
  call void @llvm.lifetime.start.p0(i64 8, ptr %6) #9
  call void @llvm.lifetime.start.p0(i64 8, ptr %7) #9
  %9 = load ptr, ptr %5, align 8, !tbaa !37
  %10 = call i32 @archive_entry_filetype(ptr noundef %9)
  %11 = icmp eq i32 %10, 0
  br i1 %11, label %12, label %19

12:                                               ; preds = %2
  %13 = load ptr, ptr %5, align 8, !tbaa !37
  %14 = call ptr @archive_entry_hardlink(ptr noundef %13)
  %15 = icmp eq ptr %14, null
  br i1 %15, label %16, label %19

16:                                               ; preds = %12
  %17 = load ptr, ptr %4, align 8, !tbaa !9
  %18 = getelementptr inbounds nuw %struct.archive_write, ptr %17, i32 0, i32 0
  call void (ptr, i32, ptr, ...) @archive_set_error(ptr noundef %18, i32 noundef -1, ptr noundef @.str.6)
  store i32 -25, ptr %3, align 4
  store i32 1, ptr %8, align 4
  br label %62

19:                                               ; preds = %12, %2
  %20 = load ptr, ptr %5, align 8, !tbaa !37
  %21 = load ptr, ptr %4, align 8, !tbaa !9
  %22 = call ptr @get_sconv(ptr noundef %21)
  %23 = call i32 @_archive_entry_pathname_l(ptr noundef %20, ptr noundef %6, ptr noundef %7, ptr noundef %22)
  %24 = icmp ne i32 %23, 0
  br i1 %24, label %25, label %32

25:                                               ; preds = %19
  %26 = call ptr @__errno_location() #12
  %27 = load i32, ptr %26, align 4, !tbaa !11
  %28 = icmp eq i32 %27, 12
  br i1 %28, label %29, label %32

29:                                               ; preds = %25
  %30 = load ptr, ptr %4, align 8, !tbaa !9
  %31 = getelementptr inbounds nuw %struct.archive_write, ptr %30, i32 0, i32 0
  call void (ptr, i32, ptr, ...) @archive_set_error(ptr noundef %31, i32 noundef 12, ptr noundef @.str.7)
  store i32 -30, ptr %3, align 4
  store i32 1, ptr %8, align 4
  br label %62

32:                                               ; preds = %25, %19
  %33 = load i64, ptr %7, align 8, !tbaa !39
  %34 = icmp eq i64 %33, 0
  br i1 %34, label %44, label %35

35:                                               ; preds = %32
  %36 = load ptr, ptr %6, align 8, !tbaa !33
  %37 = icmp eq ptr %36, null
  br i1 %37, label %44, label %38

38:                                               ; preds = %35
  %39 = load ptr, ptr %6, align 8, !tbaa !33
  %40 = getelementptr inbounds i8, ptr %39, i64 0
  %41 = load i8, ptr %40, align 1, !tbaa !34
  %42 = sext i8 %41 to i32
  %43 = icmp eq i32 %42, 0
  br i1 %43, label %44, label %47

44:                                               ; preds = %38, %35, %32
  %45 = load ptr, ptr %4, align 8, !tbaa !9
  %46 = getelementptr inbounds nuw %struct.archive_write, ptr %45, i32 0, i32 0
  call void (ptr, i32, ptr, ...) @archive_set_error(ptr noundef %46, i32 noundef -1, ptr noundef @.str.8)
  store i32 -25, ptr %3, align 4
  store i32 1, ptr %8, align 4
  br label %62

47:                                               ; preds = %38
  %48 = load ptr, ptr %5, align 8, !tbaa !37
  %49 = call i32 @archive_entry_size_is_set(ptr noundef %48)
  %50 = icmp ne i32 %49, 0
  br i1 %50, label %51, label %55

51:                                               ; preds = %47
  %52 = load ptr, ptr %5, align 8, !tbaa !37
  %53 = call i64 @archive_entry_size(ptr noundef %52)
  %54 = icmp slt i64 %53, 0
  br i1 %54, label %55, label %58

55:                                               ; preds = %51, %47
  %56 = load ptr, ptr %4, align 8, !tbaa !9
  %57 = getelementptr inbounds nuw %struct.archive_write, ptr %56, i32 0, i32 0
  call void (ptr, i32, ptr, ...) @archive_set_error(ptr noundef %57, i32 noundef -1, ptr noundef @.str.9)
  store i32 -25, ptr %3, align 4
  store i32 1, ptr %8, align 4
  br label %62

58:                                               ; preds = %51
  %59 = load ptr, ptr %4, align 8, !tbaa !9
  %60 = load ptr, ptr %5, align 8, !tbaa !37
  %61 = call i32 @write_header(ptr noundef %59, ptr noundef %60)
  store i32 %61, ptr %3, align 4
  store i32 1, ptr %8, align 4
  br label %62

62:                                               ; preds = %58, %55, %44, %29, %16
  call void @llvm.lifetime.end.p0(i64 8, ptr %7) #9
  call void @llvm.lifetime.end.p0(i64 8, ptr %6) #9
  %63 = load i32, ptr %3, align 4
  ret i32 %63
}